; ModuleID = '24/1710.c'
source_filename = "24/1710.c"
target datalayout = "e-m:e-p270:32:32-p271:32:32-p272:64:64-i64:64-f80:128-n8:16:32:64-S128"
target triple = "x86_64-pc-linux-gnu"

; Function Attrs: noinline nounwind uwtable
define dso_local i32 @main() #0 {
  %1 = alloca i32, align 4
  %2 = alloca i32, align 4
  %3 = alloca i32, align 4
  %4 = alloca i32, align 4
  %5 = alloca i32, align 4
  %6 = alloca i32, align 4
  %7 = alloca [200 x i32], align 16
  %8 = alloca i32, align 4
  %9 = alloca [200 x [20 x i8]], align 16
  %10 = alloca [400 x i8], align 16
  store i32 0, i32* %1, align 4
  store i32 0, i32* %3, align 4
  store i32 100, i32* %4, align 4
  store i32 0, i32* %8, align 4
  %11 = getelementptr inbounds [400 x i8], [400 x i8]* %10, i64 0, i64 0
  %12 = call i32 (i8*, ...) bitcast (i32 (...)* @gets to i32 (i8*, ...)*)(i8* %11)
  %13 = getelementptr inbounds [400 x i8], [400 x i8]* %10, i64 0, i64 0
  %14 = call i64 @strlen(i8* %13) #3
  %15 = trunc i64 %14 to i32
  store i32 %15, i32* %5, align 4
  store i32 0, i32* %6, align 4
  br label %16

16:                                               ; preds = %87, %0
  %17 = load i32, i32* %6, align 4
  %18 = load i32, i32* %5, align 4
  %19 = icmp slt i32 %17, %18
  br i1 %19, label %20, label %90

20:                                               ; preds = %16
  store i32 0, i32* %2, align 4
  br label %21

21:                                               ; preds = %41, %20
  %22 = load i32, i32* %6, align 4
  %23 = sext i32 %22 to i64
  %24 = getelementptr inbounds [400 x i8], [400 x i8]* %10, i64 0, i64 %23
  %25 = load i8, i8* %24, align 1
  %26 = sext i8 %25 to i32
  %27 = icmp ne i32 %26, 32
  br i1 %27, label %28, label %39

28:                                               ; preds = %21
  %29 = load i32, i32* %6, align 4
  %30 = sext i32 %29 to i64
  %31 = getelementptr inbounds [400 x i8], [400 x i8]* %10, i64 0, i64 %30
  %32 = load i8, i8* %31, align 1
  %33 = sext i8 %32 to i32
  %34 = icmp ne i32 %33, 44
  br i1 %34, label %35, label %39

35:                                               ; preds = %28
  %36 = load i32, i32* %6, align 4
  %37 = load i32, i32* %5, align 4
  %38 = icmp slt i32 %36, %37
  br label %39

39:                                               ; preds = %35, %28, %21
  %40 = phi i1 [ false, %28 ], [ false, %21 ], [ %38, %35 ]
  br i1 %40, label %41, label %56

41:                                               ; preds = %39
  %42 = load i32, i32* %6, align 4
  %43 = sext i32 %42 to i64
  %44 = getelementptr inbounds [400 x i8], [400 x i8]* %10, i64 0, i64 %43
  %45 = load i8, i8* %44, align 1
  %46 = load i32, i32* %8, align 4
  %47 = sext i32 %46 to i64
  %48 = getelementptr inbounds [200 x [20 x i8]], [200 x [20 x i8]]* %9, i64 0, i64 %47
  %49 = load i32, i32* %2, align 4
  %50 = sext i32 %49 to i64
  %51 = getelementptr inbounds [20 x i8], [20 x i8]* %48, i64 0, i64 %50
  store i8 %45, i8* %51, align 1
  %52 = load i32, i32* %2, align 4
  %53 = add nsw i32 %52, 1
  store i32 %53, i32* %2, align 4
  %54 = load i32, i32* %6, align 4
  %55 = add nsw i32 %54, 1
  store i32 %55, i32* %6, align 4
  br label %21

56:                                               ; preds = %39
  %57 = load i32, i32* %6, align 4
  %58 = sext i32 %57 to i64
  %59 = getelementptr inbounds [400 x i8], [400 x i8]* %10, i64 0, i64 %58
  %60 = load i8, i8* %59, align 1
  %61 = sext i8 %60 to i32
  %62 = icmp eq i32 %61, 44
  br i1 %62, label %63, label %74

63:                                               ; preds = %56
  %64 = load i32, i32* %6, align 4
  %65 = add nsw i32 %64, 1
  %66 = sext i32 %65 to i64
  %67 = getelementptr inbounds [400 x i8], [400 x i8]* %10, i64 0, i64 %66
  %68 = load i8, i8* %67, align 1
  %69 = sext i8 %68 to i32
  %70 = icmp eq i32 %69, 32
  br i1 %70, label %71, label %74

71:                                               ; preds = %63
  %72 = load i32, i32* %6, align 4
  %73 = add nsw i32 %72, 1
  store i32 %73, i32* %6, align 4
  br label %74

74:                                               ; preds = %71, %63, %56
  %75 = load i32, i32* %2, align 4
  %76 = load i32, i32* %8, align 4
  %77 = sext i32 %76 to i64
  %78 = getelementptr inbounds [200 x i32], [200 x i32]* %7, i64 0, i64 %77
  store i32 %75, i32* %78, align 4
  %79 = load i32, i32* %8, align 4
  %80 = sext i32 %79 to i64
  %81 = getelementptr inbounds [200 x [20 x i8]], [200 x [20 x i8]]* %9, i64 0, i64 %80
  %82 = load i32, i32* %2, align 4
  %83 = sext i32 %82 to i64
  %84 = getelementptr inbounds [20 x i8], [20 x i8]* %81, i64 0, i64 %83
  store i8 0, i8* %84, align 1
  %85 = load i32, i32* %8, align 4
  %86 = add nsw i32 %85, 1
  store i32 %86, i32* %8, align 4
  br label %87

87:                                               ; preds = %74
  %88 = load i32, i32* %6, align 4
  %89 = add nsw i32 %88, 1
  store i32 %89, i32* %6, align 4
  br label %16

90:                                               ; preds = %16
  store i32 0, i32* %6, align 4
  br label %91

91:                                               ; preds = %108, %90
  %92 = load i32, i32* %6, align 4
  %93 = load i32, i32* %8, align 4
  %94 = icmp slt i32 %92, %93
  br i1 %94, label %95, label %111

95:                                               ; preds = %91
  %96 = load i32, i32* %3, align 4
  %97 = load i32, i32* %6, align 4
  %98 = sext i32 %97 to i64
  %99 = getelementptr inbounds [200 x i32], [200 x i32]* %7, i64 0, i64 %98
  %100 = load i32, i32* %99, align 4
  %101 = icmp slt i32 %96, %100
  br i1 %101, label %102, label %107

102:                                              ; preds = %95
  %103 = load i32, i32* %6, align 4
  %104 = sext i32 %103 to i64
  %105 = getelementptr inbounds [200 x i32], [200 x i32]* %7, i64 0, i64 %104
  %106 = load i32, i32* %105, align 4
  store i32 %106, i32* %3, align 4
  br label %107

107:                                              ; preds = %102, %95
  br label %108

108:                                              ; preds = %107
  %109 = load i32, i32* %6, align 4
  %110 = add nsw i32 %109, 1
  store i32 %110, i32* %6, align 4
  br label %91

111:                                              ; preds = %91
  store i32 0, i32* %6, align 4
  br label %112

112:                                              ; preds = %129, %111
  %113 = load i32, i32* %6, align 4
  %114 = load i32, i32* %8, align 4
  %115 = icmp slt i32 %113, %114
  br i1 %115, label %116, label %132

116:                                              ; preds = %112
  %117 = load i32, i32* %4, align 4
  %118 = load i32, i32* %6, align 4
  %119 = sext i32 %118 to i64
  %120 = getelementptr inbounds [200 x i32], [200 x i32]* %7, i64 0, i64 %119
  %121 = load i32, i32* %120, align 4
  %122 = icmp sgt i32 %117, %121
  br i1 %122, label %123, label %128

123:                                              ; preds = %116
  %124 = load i32, i32* %6, align 4
  %125 = sext i32 %124 to i64
  %126 = getelementptr inbounds [200 x i32], [200 x i32]* %7, i64 0, i64 %125
  %127 = load i32, i32* %126, align 4
  store i32 %127, i32* %4, align 4
  br label %128

128:                                              ; preds = %123, %116
  br label %129

129:                                              ; preds = %128
  %130 = load i32, i32* %6, align 4
  %131 = add nsw i32 %130, 1
  store i32 %131, i32* %6, align 4
  br label %112

132:                                              ; preds = %112
  store i32 0, i32* %6, align 4
  br label %133

133:                                              ; preds = %152, %132
  %134 = load i32, i32* %6, align 4
  %135 = load i32, i32* %8, align 4
  %136 = icmp slt i32 %134, %135
  br i1 %136, label %137, label %155

137:                                              ; preds = %133
  %138 = load i32, i32* %6, align 4
  %139 = sext i32 %138 to i64
  %140 = getelementptr inbounds [200 x i32], [200 x i32]* %7, i64 0, i64 %139
  %141 = load i32, i32* %140, align 4
  store i32 %141, i32* %5, align 4
  %142 = load i32, i32* %5, align 4
  %143 = load i32, i32* %3, align 4
  %144 = icmp eq i32 %142, %143
  br i1 %144, label %145, label %151

145:                                              ; preds = %137
  %146 = load i32, i32* %6, align 4
  %147 = sext i32 %146 to i64
  %148 = getelementptr inbounds [200 x [20 x i8]], [200 x [20 x i8]]* %9, i64 0, i64 %147
  %149 = getelementptr inbounds [20 x i8], [20 x i8]* %148, i64 0, i64 0
  %150 = call i32 @puts(i8* %149)
  br label %155

151:                                              ; preds = %137
  br label %152

152:                                              ; preds = %151
  %153 = load i32, i32* %6, align 4
  %154 = add nsw i32 %153, 1
  store i32 %154, i32* %6, align 4
  br label %133

155:                                              ; preds = %145, %133
  store i32 0, i32* %6, align 4
  br label %156

156:                                              ; preds = %175, %155
  %157 = load i32, i32* %6, align 4
  %158 = load i32, i32* %8, align 4
  %159 = icmp slt i32 %157, %158
  br i1 %159, label %160, label %178

160:                                              ; preds = %156
  %161 = load i32, i32* %6, align 4
  %162 = sext i32 %161 to i64
  %163 = getelementptr inbounds [200 x i32], [200 x i32]* %7, i64 0, i64 %162
  %164 = load i32, i32* %163, align 4
  store i32 %164, i32* %5, align 4
  %165 = load i32, i32* %5, align 4
  %166 = load i32, i32* %4, align 4
  %167 = icmp eq i32 %165, %166
  br i1 %167, label %168, label %174

168:                                              ; preds = %160
  %169 = load i32, i32* %6, align 4
  %170 = sext i32 %169 to i64
  %171 = getelementptr inbounds [200 x [20 x i8]], [200 x [20 x i8]]* %9, i64 0, i64 %170
  %172 = getelementptr inbounds [20 x i8], [20 x i8]* %171, i64 0, i64 0
  %173 = call i32 @puts(i8* %172)
  br label %178

174:                                              ; preds = %160
  br label %175

175:                                              ; preds = %174
  %176 = load i32, i32* %6, align 4
  %177 = add nsw i32 %176, 1
  store i32 %177, i32* %6, align 4
  br label %156

178:                                              ; preds = %168, %156
  ret i32 0
}

declare dso_local i32 @gets(...) #1

; Function Attrs: nounwind readonly
declare dso_local i64 @strlen(i8*) #2

declare dso_local i32 @puts(i8*) #1


!llvm.module.flags = !{!0}
!llvm.ident = !{!1}

!0 = !{i32 1, !"wchar_size", i32 4}
!1 = !{!"clang version 10.0.0-4ubuntu1 "}
